target datalayout = "e-m:e-p270:32:32-p271:32:32-p272:64:64-i64:64-i128:128-f80:128-n8:16:32:64-S128"
target triple = "x86_64-pc-linux-gnu"

%struct.AVProbeData = type { ptr, ptr, i32, ptr }

; Function Attrs: nounwind uwtable
define internal i32 @codec2_probe(ptr noundef %0) #0 {
  %2 = alloca i32, align 4
  %3 = alloca ptr, align 8
  store ptr %0, ptr %3, align 8, !tbaa !4
  %4 = load ptr, ptr %3, align 8, !tbaa !4
  %5 = getelementptr inbounds nuw %struct.AVProbeData, ptr %4, i32 0, i32 1
  %6 = load ptr, ptr %5, align 8, !tbaa !9
  %7 = getelementptr inbounds i8, ptr %6, i64 0
  %8 = load i8, ptr %7, align 1, !tbaa !13
  %9 = zext i8 %8 to i32
  %10 = shl i32 %9, 16
  %11 = load ptr, ptr %3, align 8, !tbaa !4
  %12 = getelementptr inbounds nuw %struct.AVProbeData, ptr %11, i32 0, i32 1
  %13 = load ptr, ptr %12, align 8, !tbaa !9
  %14 = getelementptr inbounds i8, ptr %13, i64 1
  %15 = load i8, ptr %14, align 1, !tbaa !13
  %16 = zext i8 %15 to i32
  %17 = shl i32 %16, 8
  %18 = or i32 %10, %17
  %19 = load ptr, ptr %3, align 8, !tbaa !4
  %20 = getelementptr inbounds nuw %struct.AVProbeData, ptr %19, i32 0, i32 1
  %21 = load ptr, ptr %20, align 8, !tbaa !9
  %22 = getelementptr inbounds i8, ptr %21, i64 2
  %23 = load i8, ptr %22, align 1, !tbaa !13
  %24 = zext i8 %23 to i32
  %25 = or i32 %18, %24
  %26 = icmp ne i32 %25, 12639938
  br i1 %26, label %27, label %28

27:                                               ; preds = %1
  store i32 0, ptr %2, align 4
  br label %46

28:                                               ; preds = %1
  %29 = load ptr, ptr %3, align 8, !tbaa !4
  %30 = getelementptr inbounds nuw %struct.AVProbeData, ptr %29, i32 0, i32 1
  %31 = load ptr, ptr %30, align 8, !tbaa !9
  %32 = getelementptr inbounds i8, ptr %31, i64 3
  %33 = load i8, ptr %32, align 1, !tbaa !13
  %34 = zext i8 %33 to i32
  %35 = icmp ne i32 %34, 0
  br i1 %35, label %44, label %36

36:                                               ; preds = %28
  %37 = load ptr, ptr %3, align 8, !tbaa !4
  %38 = getelementptr inbounds nuw %struct.AVProbeData, ptr %37, i32 0, i32 1
  %39 = load ptr, ptr %38, align 8, !tbaa !9
  %40 = getelementptr inbounds i8, ptr %39, i64 4
  %41 = load i8, ptr %40, align 1, !tbaa !13
  %42 = zext i8 %41 to i32
  %43 = icmp slt i32 %42, 8
  br i1 %43, label %44, label %45

44:                                               ; preds = %36, %28
  store i32 0, ptr %2, align 4
  br label %46

45:                                               ; preds = %36
  store i32 51, ptr %2, align 4
  br label %46

46:                                               ; preds = %45, %44, %27
  %47 = load i32, ptr %2, align 4
  ret i32 %47
}