; Function Attrs: mustprogress nofree norecurse nosync nounwind willreturn memory(read, inaccessiblemem: none) uwtable
define internal range(i32 0, 52) i32 @codec2_probe(ptr noundef readonly captures(none) %0) #0 {
  %2 = getelementptr inbounds nuw i8, ptr %0, i64 8
  %3 = load ptr, ptr %2, align 8, !tbaa !4
  %4 = load i8, ptr %3, align 1, !tbaa !11
  %5 = zext i8 %4 to i32
  %6 = shl nuw nsw i32 %5, 16
  %7 = getelementptr inbounds nuw i8, ptr %3, i64 1
  %8 = load i8, ptr %7, align 1, !tbaa !11
  %9 = zext i8 %8 to i32
  %10 = shl nuw nsw i32 %9, 8
  %11 = or disjoint i32 %10, %6
  %12 = getelementptr inbounds nuw i8, ptr %3, i64 2
  %13 = load i8, ptr %12, align 1, !tbaa !11
  %14 = zext i8 %13 to i32
  %15 = or disjoint i32 %11, %14
  %.not = icmp eq i32 %15, 12639938
  br i1 %.not, label %16, label %23

16:                                               ; preds = %1
  %17 = getelementptr inbounds nuw i8, ptr %3, i64 3
  %18 = load i8, ptr %17, align 1, !tbaa !11
  %.not5 = icmp eq i8 %18, 0
  br i1 %.not5, label %19, label %23

19:                                               ; preds = %16
  %20 = getelementptr inbounds nuw i8, ptr %3, i64 4
  %21 = load i8, ptr %20, align 1, !tbaa !11
  %22 = icmp ult i8 %21, 8
  %spec.select = select i1 %22, i32 0, i32 51
  br label %23

23:                                               ; preds = %19, %16, %1
  %.0 = phi i32 [ 0, %1 ], [ 0, %16 ], [ %spec.select, %19 ]
  ret i32 %.0
}